target datalayout = "e-m:e-p270:32:32-p271:32:32-p272:64:64-i64:64-i128:128-f80:128-n8:16:32:64-S128"
target triple = "x86_64-pc-linux-gnu"

%struct.V360Context = type { ptr, i32, i32, i32, i32, i32, i32, i32, ptr, ptr, ptr, ptr, ptr, [6 x i32], [6 x i32], [6 x i32], [6 x i32], [3 x i32], i32, i32, float, float, i32, i32, float, float, float, float, float, i32, i32, i32, i32, i32, i32, i32, float, float, float, float, float, float, [2 x float], [2 x float], [2 x [4 x float]], [3 x float], i32, i32, i32, i32, [4 x i32], [4 x i32], [4 x i32], [4 x i32], [4 x i32], [4 x i32], [4 x i32], [4 x i32], [4 x i32], [4 x i32], [4 x i32], i32, i32, i32, i32, i32, i32, ptr, [4 x i32], ptr, ptr, ptr, ptr, ptr }
%struct.AVFilterContext = type { ptr, ptr, ptr, ptr, ptr, i32, ptr, ptr, i32, ptr, ptr, i32, i32, ptr, ptr, ptr, ptr, i32, ptr, i32, i32 }

; Function Attrs: nounwind uwtable
define internal i32 @prepare_fisheye_out(ptr noundef %0) #0 {
  %2 = alloca ptr, align 8
  %3 = alloca ptr, align 8
  store ptr %0, ptr %2, align 8, !tbaa !47
  call void @llvm.lifetime.start.p0(i64 8, ptr %3) #13
  %4 = load ptr, ptr %2, align 8, !tbaa !47
  %5 = getelementptr inbounds nuw %struct.AVFilterContext, ptr %4, i32 0, i32 9
  %6 = load ptr, ptr %5, align 8, !tbaa !49
  store ptr %6, ptr %3, align 8, !tbaa !4
  %7 = load ptr, ptr %3, align 8, !tbaa !4
  %8 = getelementptr inbounds nuw %struct.V360Context, ptr %7, i32 0, i32 36
  %9 = load float, ptr %8, align 4, !tbaa !119
  %10 = fdiv nsz float %9, 1.800000e+02
  %11 = load ptr, ptr %3, align 8, !tbaa !4
  %12 = getelementptr inbounds nuw %struct.V360Context, ptr %11, i32 0, i32 42
  %13 = getelementptr inbounds [2 x float], ptr %12, i64 0, i64 0
  store float %10, ptr %13, align 4, !tbaa !99
  %14 = load ptr, ptr %3, align 8, !tbaa !4
  %15 = getelementptr inbounds nuw %struct.V360Context, ptr %14, i32 0, i32 37
  %16 = load float, ptr %15, align 8, !tbaa !120
  %17 = fdiv nsz float %16, 1.800000e+02
  %18 = load ptr, ptr %3, align 8, !tbaa !4
  %19 = getelementptr inbounds nuw %struct.V360Context, ptr %18, i32 0, i32 42
  %20 = getelementptr inbounds [2 x float], ptr %19, i64 0, i64 1
  store float %17, ptr %20, align 4, !tbaa !99
  call void @llvm.lifetime.end.p0(i64 8, ptr %3) #13
  ret i32 0
}