; Function Attrs: mustprogress nofree norecurse nosync nounwind willreturn memory(readwrite, inaccessiblemem: none) uwtable
define internal noundef i32 @prepare_fisheye_out(ptr noundef readonly captures(none) %0) unnamed_addr #8 {
  %2 = getelementptr inbounds nuw i8, ptr %0, i64 72
  %3 = load ptr, ptr %2, align 8, !tbaa !39
  %4 = getelementptr inbounds nuw i8, ptr %3, i64 260
  %5 = load float, ptr %4, align 4, !tbaa !109
  %6 = fdiv nsz float %5, 1.800000e+02
  %7 = getelementptr inbounds nuw i8, ptr %3, i64 284
  store float %6, ptr %7, align 4, !tbaa !49
  %8 = getelementptr inbounds nuw i8, ptr %3, i64 264
  %9 = load float, ptr %8, align 8, !tbaa !110
  %10 = fdiv nsz float %9, 1.800000e+02
  %11 = getelementptr inbounds nuw i8, ptr %3, i64 288
  store float %10, ptr %11, align 4, !tbaa !49
  ret i32 0
}